target datalayout = "e-m:e-p270:32:32-p271:32:32-p272:64:64-i64:64-i128:128-f80:128-n8:16:32:64-S128"
target triple = "x86_64-unknown-linux-gnu"

%"class.EA::EAMain::PrintManager" = type { [3 x ptr] }

; Function Attrs: mustprogress uwtable
define dso_local void @_ZN2EA6EAMain12PrintManager3AddENS0_13EAMainChannelEPNS0_8IChannelE(ptr noundef nonnull align 8 dereferenceable(24) %this, i32 noundef %channel, ptr noundef %instance) #4 align 2 {
entry:
  %this.addr = alloca ptr, align 8
  %channel.addr = alloca i32, align 4
  %instance.addr = alloca ptr, align 8
  store ptr %this, ptr %this.addr, align 8
  store i32 %channel, ptr %channel.addr, align 4
  store ptr %instance, ptr %instance.addr, align 8
  %this1 = load ptr, ptr %this.addr, align 8
  %0 = load ptr, ptr %instance.addr, align 8
  %cmp = icmp ne ptr %0, null
  br i1 %cmp, label %land.lhs.true, label %if.end

land.lhs.true:                                    ; preds = %entry
  %m_Channels = getelementptr inbounds %"class.EA::EAMain::PrintManager", ptr %this1, i32 0, i32 0
  %1 = load i32, ptr %channel.addr, align 4
  %idxprom = zext i32 %1 to i64
  %arrayidx = getelementptr inbounds [3 x ptr], ptr %m_Channels, i64 0, i64 %idxprom
  %2 = load ptr, ptr %arrayidx, align 8
  %cmp2 = icmp eq ptr %2, null
  br i1 %cmp2, label %if.then, label %if.end

if.then:                                          ; preds = %land.lhs.true
  %3 = load ptr, ptr %instance.addr, align 8
  %vtable = load ptr, ptr %3, align 8
  %vfn = getelementptr inbounds ptr, ptr %vtable, i64 2
  %4 = load ptr, ptr %vfn, align 8
  call void %4(ptr noundef nonnull align 8 dereferenceable(8) %3)
  %5 = load ptr, ptr %instance.addr, align 8
  %m_Channels3 = getelementptr inbounds %"class.EA::EAMain::PrintManager", ptr %this1, i32 0, i32 0
  %6 = load i32, ptr %channel.addr, align 4
  %idxprom4 = zext i32 %6 to i64
  %arrayidx5 = getelementptr inbounds [3 x ptr], ptr %m_Channels3, i64 0, i64 %idxprom4
  store ptr %5, ptr %arrayidx5, align 8
  br label %if.end

if.end:                                           ; preds = %if.then, %land.lhs.true, %entry
  ret void
}