; Function Attrs: mustprogress uwtable
define dso_local void @_ZN2EA6EAMain12PrintManager3AddENS0_13EAMainChannelEPNS0_8IChannelE(ptr nocapture noundef nonnull align 8 dereferenceable(24) %this, i32 noundef %channel, ptr noundef %instance) local_unnamed_addr #3 align 2 {
entry:
  %cmp.not = icmp eq ptr %instance, null
  br i1 %cmp.not, label %if.end, label %land.lhs.true

land.lhs.true:                                    ; preds = %entry
  %idxprom = zext i32 %channel to i64
  %arrayidx = getelementptr inbounds [3 x ptr], ptr %this, i64 0, i64 %idxprom
  %0 = load ptr, ptr %arrayidx, align 8
  %cmp2 = icmp eq ptr %0, null
  br i1 %cmp2, label %if.then, label %if.end

if.then:                                          ; preds = %land.lhs.true
  %vtable = load ptr, ptr %instance, align 8
  %vfn = getelementptr inbounds i8, ptr %vtable, i64 16
  %1 = load ptr, ptr %vfn, align 8
  tail call void %1(ptr noundef nonnull align 8 dereferenceable(8) %instance)
  store ptr %instance, ptr %arrayidx, align 8
  br label %if.end

if.end:                                           ; preds = %if.then, %land.lhs.true, %entry
  ret void
}